target datalayout = "e-m:e-p270:32:32-p271:32:32-p272:64:64-i64:64-i128:128-f80:128-n8:16:32:64-S128"
target triple = "x86_64-pc-linux-gnu"

%struct.archive_read = type { %struct.archive, ptr, i32, i64, i64, %struct.archive_read_client, [16 x %struct.archive_read_filter_bidder], ptr, i32, i64, i32, i32, [16 x %struct.archive_format_descriptor], ptr, ptr, ptr, %struct.anon }
%struct.archive = type { i32, i32, ptr, i32, ptr, i32, i32, ptr, %struct.archive_string, ptr, i32, i32, ptr, ptr, i64, i64, i64, i8, i64 }
%struct.archive_string = type { ptr, i64, i64 }
%struct.archive_read_client = type { ptr, ptr, ptr, ptr, ptr, ptr, i32, i32, i64, ptr }
%struct.archive_read_filter_bidder = type { ptr, ptr, ptr }
%struct.archive_format_descriptor = type { ptr, ptr, ptr, ptr, ptr, ptr, ptr, ptr, ptr, ptr, ptr }
%struct.anon = type { ptr, ptr, i32, ptr, ptr }

@.str.36 = private unnamed_addr constant [29 x i8] c"Can't allocate memory for %s\00", align 1
@.str.37 = private unnamed_addr constant [49 x i8] c"%s can't be converted from %s to current locale.\00", align 1

; Function Attrs: nounwind uwtable
define internal i32 @set_conversion_failed_error(ptr noundef %0, ptr noundef %1, ptr noundef %2) #0 {
  %4 = alloca i32, align 4
  %5 = alloca ptr, align 8
  %6 = alloca ptr, align 8
  %7 = alloca ptr, align 8
  store ptr %0, ptr %5, align 8, !tbaa !11
  store ptr %1, ptr %6, align 8, !tbaa !113
  store ptr %2, ptr %7, align 8, !tbaa !15
  %8 = call ptr @__errno_location() #13
  %9 = load i32, ptr %8, align 4, !tbaa !9
  %10 = icmp eq i32 %9, 12
  br i1 %10, label %11, label %15

11:                                               ; preds = %3
  %12 = load ptr, ptr %5, align 8, !tbaa !11
  %13 = getelementptr inbounds nuw %struct.archive_read, ptr %12, i32 0, i32 0
  %14 = load ptr, ptr %7, align 8, !tbaa !15
  call void (ptr, i32, ptr, ...) @archive_set_error(ptr noundef %13, i32 noundef 12, ptr noundef @.str.36, ptr noundef %14)
  store i32 -30, ptr %4, align 4
  br label %21

15:                                               ; preds = %3
  %16 = load ptr, ptr %5, align 8, !tbaa !11
  %17 = getelementptr inbounds nuw %struct.archive_read, ptr %16, i32 0, i32 0
  %18 = load ptr, ptr %7, align 8, !tbaa !15
  %19 = load ptr, ptr %6, align 8, !tbaa !113
  %20 = call ptr @archive_string_conversion_charset_name(ptr noundef %19)
  call void (ptr, i32, ptr, ...) @archive_set_error(ptr noundef %17, i32 noundef 84, ptr noundef @.str.37, ptr noundef %18, ptr noundef %20)
  store i32 -20, ptr %4, align 4
  br label %21

21:                                               ; preds = %15, %11
  %22 = load i32, ptr %4, align 4
  ret i32 %22
}