; Function Attrs: nounwind uwtable
define internal fastcc range(i32 -30, -19) i32 @set_conversion_failed_error(ptr noundef %0, ptr noundef %1, ptr noundef %2) unnamed_addr #0 {
  %4 = tail call ptr @__errno_location() #16
  %5 = load i32, ptr %4, align 4, !tbaa !46
  %6 = icmp eq i32 %5, 12
  br i1 %6, label %7, label %8

7:                                                ; preds = %3
  tail call void (ptr, i32, ptr, ...) @archive_set_error(ptr noundef %0, i32 noundef 12, ptr noundef nonnull @.str.36, ptr noundef %2) #13
  br label %10

8:                                                ; preds = %3
  %9 = tail call ptr @archive_string_conversion_charset_name(ptr noundef %1) #13
  tail call void (ptr, i32, ptr, ...) @archive_set_error(ptr noundef %0, i32 noundef 84, ptr noundef nonnull @.str.37, ptr noundef %2, ptr noundef %9) #13
  br label %10

10:                                               ; preds = %8, %7
  %.0 = phi i32 [ -30, %7 ], [ -20, %8 ]
  ret i32 %.0
}